target datalayout = "e-m:e-p270:32:32-p271:32:32-p272:64:64-i64:64-i128:128-f80:128-n8:16:32:64-S128"
target triple = "x86_64-pc-linux-gnu"

@.str.45 = private unnamed_addr constant [2 x i8] c",\00", align 1

; Function Attrs: mustprogress uwtable
define internal noundef i32 @_ZL9str_splitP9lua_State(ptr noundef %0) #2 {
  %2 = alloca ptr, align 8
  %3 = alloca i64, align 8
  %4 = alloca ptr, align 8
  %5 = alloca i64, align 8
  %6 = alloca ptr, align 8
  %7 = alloca ptr, align 8
  %8 = alloca ptr, align 8
  %9 = alloca ptr, align 8
  %10 = alloca i32, align 4
  %11 = alloca ptr, align 8
  store ptr %0, ptr %2, align 8, !tbaa !20
  call void @llvm.lifetime.start.p0(i64 8, ptr %3) #13
  call void @llvm.lifetime.start.p0(i64 8, ptr %4) #13
  %12 = load ptr, ptr %2, align 8, !tbaa !20
  %13 = call noundef ptr @_Z17luaL_checklstringP9lua_StateiPm(ptr noundef %12, i32 noundef 1, ptr noundef %3)
  store ptr %13, ptr %4, align 8, !tbaa !9
  call void @llvm.lifetime.start.p0(i64 8, ptr %5) #13
  call void @llvm.lifetime.start.p0(i64 8, ptr %6) #13
  %14 = load ptr, ptr %2, align 8, !tbaa !20
  %15 = call noundef ptr @_Z15luaL_optlstringP9lua_StateiPKcPm(ptr noundef %14, i32 noundef 2, ptr noundef @.str.45, ptr noundef %5)
  store ptr %15, ptr %6, align 8, !tbaa !9
  call void @llvm.lifetime.start.p0(i64 8, ptr %7) #13
  %16 = load ptr, ptr %4, align 8, !tbaa !9
  store ptr %16, ptr %7, align 8, !tbaa !9
  call void @llvm.lifetime.start.p0(i64 8, ptr %8) #13
  %17 = load ptr, ptr %4, align 8, !tbaa !9
  %18 = load i64, ptr %3, align 8, !tbaa !22
  %19 = getelementptr inbounds nuw i8, ptr %17, i64 %18
  store ptr %19, ptr %8, align 8, !tbaa !9
  call void @llvm.lifetime.start.p0(i64 8, ptr %9) #13
  %20 = load ptr, ptr %7, align 8, !tbaa !9
  store ptr %20, ptr %9, align 8, !tbaa !9
  call void @llvm.lifetime.start.p0(i64 4, ptr %10) #13
  store i32 0, ptr %10, align 4, !tbaa !24
  %21 = load ptr, ptr %2, align 8, !tbaa !20
  call void @_Z15lua_createtableP9lua_Stateii(ptr noundef %21, i32 noundef 0, i32 noundef 0)
  %22 = load i64, ptr %5, align 8, !tbaa !22
  %23 = icmp eq i64 %22, 0
  br i1 %23, label %24, label %27

24:                                               ; preds = %1
  %25 = load ptr, ptr %7, align 8, !tbaa !9
  %26 = getelementptr inbounds nuw i8, ptr %25, i32 1
  store ptr %26, ptr %7, align 8, !tbaa !9
  br label %27

27:                                               ; preds = %24, %1
  call void @llvm.lifetime.start.p0(i64 8, ptr %11) #13
  %28 = load ptr, ptr %7, align 8, !tbaa !9
  store ptr %28, ptr %11, align 8, !tbaa !9
  br label %29

29:                                               ; preds = %67, %27
  %30 = load ptr, ptr %11, align 8, !tbaa !9
  %31 = load ptr, ptr %8, align 8, !tbaa !9
  %32 = load i64, ptr %5, align 8, !tbaa !22
  %33 = sub i64 0, %32
  %34 = getelementptr inbounds i8, ptr %31, i64 %33
  %35 = icmp ule ptr %30, %34
  br i1 %35, label %37, label %36

36:                                               ; preds = %29
  call void @llvm.lifetime.end.p0(i64 8, ptr %11) #13
  br label %70

37:                                               ; preds = %29
  %38 = load ptr, ptr %11, align 8, !tbaa !9
  %39 = load ptr, ptr %6, align 8, !tbaa !9
  %40 = load i64, ptr %5, align 8, !tbaa !22
  %41 = call i32 @memcmp(ptr noundef %38, ptr noundef %39, i64 noundef %40) #15
  %42 = icmp eq i32 %41, 0
  br i1 %42, label %43, label %66

43:                                               ; preds = %37
  %44 = load ptr, ptr %2, align 8, !tbaa !20
  %45 = load i32, ptr %10, align 4, !tbaa !24
  %46 = add nsw i32 %45, 1
  store i32 %46, ptr %10, align 4, !tbaa !24
  call void @_Z15lua_pushintegerP9lua_Statei(ptr noundef %44, i32 noundef %46)
  %47 = load ptr, ptr %2, align 8, !tbaa !20
  %48 = load ptr, ptr %9, align 8, !tbaa !9
  %49 = load ptr, ptr %11, align 8, !tbaa !9
  %50 = load ptr, ptr %9, align 8, !tbaa !9
  %51 = ptrtoint ptr %49 to i64
  %52 = ptrtoint ptr %50 to i64
  %53 = sub i64 %51, %52
  call void @_Z15lua_pushlstringP9lua_StatePKcm(ptr noundef %47, ptr noundef %48, i64 noundef %53)
  %54 = load ptr, ptr %2, align 8, !tbaa !20
  call void @_Z12lua_settableP9lua_Statei(ptr noundef %54, i32 noundef -3)
  %55 = load ptr, ptr %11, align 8, !tbaa !9
  %56 = load i64, ptr %5, align 8, !tbaa !22
  %57 = getelementptr inbounds nuw i8, ptr %55, i64 %56
  store ptr %57, ptr %9, align 8, !tbaa !9
  %58 = load i64, ptr %5, align 8, !tbaa !22
  %59 = icmp ugt i64 %58, 0
  br i1 %59, label %60, label %65

60:                                               ; preds = %43
  %61 = load i64, ptr %5, align 8, !tbaa !22
  %62 = sub i64 %61, 1
  %63 = load ptr, ptr %11, align 8, !tbaa !9
  %64 = getelementptr inbounds nuw i8, ptr %63, i64 %62
  store ptr %64, ptr %11, align 8, !tbaa !9
  br label %65

65:                                               ; preds = %60, %43
  br label %66

66:                                               ; preds = %65, %37
  br label %67

67:                                               ; preds = %66
  %68 = load ptr, ptr %11, align 8, !tbaa !9
  %69 = getelementptr inbounds nuw i8, ptr %68, i32 1
  store ptr %69, ptr %11, align 8, !tbaa !9
  br label %29, !llvm.loop !46

70:                                               ; preds = %36
  %71 = load i64, ptr %5, align 8, !tbaa !22
  %72 = icmp ugt i64 %71, 0
  br i1 %72, label %73, label %85

73:                                               ; preds = %70
  %74 = load ptr, ptr %2, align 8, !tbaa !20
  %75 = load i32, ptr %10, align 4, !tbaa !24
  %76 = add nsw i32 %75, 1
  store i32 %76, ptr %10, align 4, !tbaa !24
  call void @_Z15lua_pushintegerP9lua_Statei(ptr noundef %74, i32 noundef %76)
  %77 = load ptr, ptr %2, align 8, !tbaa !20
  %78 = load ptr, ptr %9, align 8, !tbaa !9
  %79 = load ptr, ptr %8, align 8, !tbaa !9
  %80 = load ptr, ptr %9, align 8, !tbaa !9
  %81 = ptrtoint ptr %79 to i64
  %82 = ptrtoint ptr %80 to i64
  %83 = sub i64 %81, %82
  call void @_Z15lua_pushlstringP9lua_StatePKcm(ptr noundef %77, ptr noundef %78, i64 noundef %83)
  %84 = load ptr, ptr %2, align 8, !tbaa !20
  call void @_Z12lua_settableP9lua_Statei(ptr noundef %84, i32 noundef -3)
  br label %85

85:                                               ; preds = %73, %70
  call void @llvm.lifetime.end.p0(i64 4, ptr %10) #13
  call void @llvm.lifetime.end.p0(i64 8, ptr %9) #13
  call void @llvm.lifetime.end.p0(i64 8, ptr %8) #13
  call void @llvm.lifetime.end.p0(i64 8, ptr %7) #13
  call void @llvm.lifetime.end.p0(i64 8, ptr %6) #13
  call void @llvm.lifetime.end.p0(i64 8, ptr %5) #13
  call void @llvm.lifetime.end.p0(i64 8, ptr %4) #13
  call void @llvm.lifetime.end.p0(i64 8, ptr %3) #13
  ret i32 1
}