; Function Attrs: mustprogress uwtable
define internal noundef i32 @_ZL9str_splitP9lua_State(ptr noundef %0) #0 {
  %2 = alloca i64, align 8
  %3 = alloca i64, align 8
  call void @llvm.lifetime.start.p0(i64 8, ptr nonnull %2) #14
  %4 = call noundef ptr @_Z17luaL_checklstringP9lua_StateiPm(ptr noundef %0, i32 noundef 1, ptr noundef nonnull %2)
  call void @llvm.lifetime.start.p0(i64 8, ptr nonnull %3) #14
  %5 = call noundef ptr @_Z15luaL_optlstringP9lua_StateiPKcPm(ptr noundef %0, i32 noundef 2, ptr noundef nonnull @.str.45, ptr noundef nonnull %3)
  %6 = load i64, ptr %2, align 8, !tbaa !4
  %7 = getelementptr inbounds nuw i8, ptr %4, i64 %6
  call void @_Z15lua_createtableP9lua_Stateii(ptr noundef %0, i32 noundef 0, i32 noundef 0)
  %8 = load i64, ptr %3, align 8, !tbaa !4
  %9 = icmp eq i64 %8, 0
  %spec.select.idx = zext i1 %9 to i64
  %spec.select = getelementptr inbounds nuw i8, ptr %4, i64 %spec.select.idx
  %10 = sub i64 0, %8
  %11 = getelementptr inbounds i8, ptr %7, i64 %10
  %.not37 = icmp ugt ptr %spec.select, %11
  br i1 %.not37, label %._crit_edge, label %.lr.ph

._crit_edge.loopexit:                             ; preds = %22
  %12 = add nsw i32 %.129, 1
  br label %._crit_edge

._crit_edge:                                      ; preds = %._crit_edge.loopexit, %1
  %.lcssa = phi i64 [ %8, %1 ], [ %.pr, %._crit_edge.loopexit ]
  %.030.lcssa = phi ptr [ %4, %1 ], [ %.131, %._crit_edge.loopexit ]
  %.028.lcssa = phi i32 [ 1, %1 ], [ %12, %._crit_edge.loopexit ]
  %.not34 = icmp eq i64 %.lcssa, 0
  br i1 %.not34, label %30, label %26

.lr.ph:                                           ; preds = %1, %22
  %.pr43 = phi i64 [ %.pr, %22 ], [ %8, %1 ]
  %.040 = phi ptr [ %23, %22 ], [ %spec.select, %1 ]
  %.02839 = phi i32 [ %.129, %22 ], [ 0, %1 ]
  %.03038 = phi ptr [ %.131, %22 ], [ %4, %1 ]
  %bcmp = call i32 @bcmp(ptr %.040, ptr %5, i64 %.pr43)
  %13 = icmp eq i32 %bcmp, 0
  br i1 %13, label %14, label %22

14:                                               ; preds = %.lr.ph
  %15 = add nsw i32 %.02839, 1
  call void @_Z15lua_pushintegerP9lua_Statei(ptr noundef %0, i32 noundef %15)
  %16 = ptrtoint ptr %.040 to i64
  %17 = ptrtoint ptr %.03038 to i64
  %18 = sub i64 %16, %17
  call void @_Z15lua_pushlstringP9lua_StatePKcm(ptr noundef %0, ptr noundef %.03038, i64 noundef %18)
  call void @_Z12lua_settableP9lua_Statei(ptr noundef %0, i32 noundef -3)
  %19 = load i64, ptr %3, align 8, !tbaa !4
  %20 = getelementptr i8, ptr %.040, i64 %19
  %.not35 = icmp eq i64 %19, 0
  %21 = getelementptr i8, ptr %20, i64 -1
  %spec.select36 = select i1 %.not35, ptr %.040, ptr %21
  br label %22

22:                                               ; preds = %14, %.lr.ph
  %.pr = phi i64 [ %.pr43, %.lr.ph ], [ %19, %14 ]
  %.131 = phi ptr [ %.03038, %.lr.ph ], [ %20, %14 ]
  %.129 = phi i32 [ %.02839, %.lr.ph ], [ %15, %14 ]
  %.1 = phi ptr [ %.040, %.lr.ph ], [ %spec.select36, %14 ]
  %23 = getelementptr inbounds nuw i8, ptr %.1, i64 1
  %24 = sub i64 0, %.pr
  %25 = getelementptr inbounds i8, ptr %7, i64 %24
  %.not = icmp ugt ptr %23, %25
  br i1 %.not, label %._crit_edge.loopexit, label %.lr.ph, !llvm.loop !48

26:                                               ; preds = %._crit_edge
  call void @_Z15lua_pushintegerP9lua_Statei(ptr noundef %0, i32 noundef %.028.lcssa)
  %27 = ptrtoint ptr %7 to i64
  %28 = ptrtoint ptr %.030.lcssa to i64
  %29 = sub i64 %27, %28
  call void @_Z15lua_pushlstringP9lua_StatePKcm(ptr noundef %0, ptr noundef %.030.lcssa, i64 noundef %29)
  call void @_Z12lua_settableP9lua_Statei(ptr noundef %0, i32 noundef -3)
  br label %30

30:                                               ; preds = %26, %._crit_edge
  call void @llvm.lifetime.end.p0(i64 8, ptr nonnull %3) #14
  call void @llvm.lifetime.end.p0(i64 8, ptr nonnull %2) #14
  ret i32 1
}